; Function Attrs: mustprogress nofree norecurse nosync nounwind willreturn memory(none) uwtable
define i64 @_ZN10open_spiel10phantom_go21VirtualPointTo2DPointEt(i16 noundef zeroext %0) local_unnamed_addr #6 {
  switch i16 %0, label %2 [
    i16 442, label %7
    i16 0, label %7
  ]

2:                                                ; preds = %1
  %3 = udiv i16 %0, 21
  %.zext = zext nneg i16 %3 to i64
  %4 = urem i16 %0, 21
  %.zext16 = zext nneg i16 %4 to i64
  %5 = add nuw nsw i64 %.zext, 4294967295
  %6 = shl nuw nsw i64 %.zext16, 32
  %.sroa.2.0.insert.ext.i8 = add nsw i64 %6, -4294967296
  %.sroa.0.0.insert.ext.i10 = and i64 %5, 4294967295
  %.sroa.0.0.insert.insert.i11 = or disjoint i64 %.sroa.2.0.insert.ext.i8, %.sroa.0.0.insert.ext.i10
  br label %7

7:                                                ; preds = %1, %1, %2
  %.sroa.0.0 = phi i64 [ %.sroa.0.0.insert.insert.i11, %2 ], [ -1, %1 ], [ -1, %1 ]
  ret i64 %.sroa.0.0
}